target datalayout = "e-m:e-p270:32:32-p271:32:32-p272:64:64-i64:64-i128:128-f80:128-n8:16:32:64-S128"
target triple = "x86_64-pc-linux-gnu"

%struct._zend_executor_globals = type { %struct._zval_struct, %struct._zval_struct, [32 x ptr], ptr, ptr, %struct._zend_array, %struct._zend_array, ptr, i32, i32, ptr, ptr, ptr, ptr, ptr, ptr, i64, ptr, ptr, i32, i32, i64, i32, i32, i32, i8, i8, %struct.zend_atomic_bool_s, %struct.zend_atomic_bool_s, ptr, i64, ptr, ptr, %struct._zend_array, %struct._zend_array, i32, i8, %struct._zval_struct, %struct._zval_struct, %struct._zend_stack, %struct._zend_stack, %struct._zend_stack, ptr, i32, i32, i64, ptr, ptr, ptr, %struct._zend_objects_store, ptr, ptr, ptr, [3 x %struct._zend_op], ptr, i8, i8, i64, i32, i32, ptr, [16 x %struct._HashTableIterator], ptr, %union._zend_function, %struct._zend_op, %struct._zend_array, i64, %struct.zend_get_gc_buffer, ptr, ptr, ptr, i64, i8, i32, ptr, ptr, i64, %struct._zend_call_stack, i64, i64, [6 x ptr] }
%struct.zend_atomic_bool_s = type { i8 }
%struct._zval_struct = type { %union._zend_value, %union.anon, %union.anon.2 }
%union._zend_value = type { i64 }
%union.anon = type { i32 }
%union.anon.2 = type { i32 }
%struct._zend_stack = type { i32, i32, i32, ptr }
%struct._zend_objects_store = type { ptr, i32, i32, i32 }
%struct._HashTableIterator = type { ptr, i32, i32 }
%union._zend_function = type { %struct._zend_op_array }
%struct._zend_op_array = type { i8, [3 x i8], i32, ptr, ptr, ptr, i32, i32, ptr, ptr, ptr, ptr, i32, i32, i32, i32, ptr, ptr, ptr, ptr, ptr, i32, i32, ptr, ptr, ptr, i32, i32, i32, i32, ptr, ptr, [6 x ptr] }
%struct._zend_op = type { ptr, %union._znode_op, %union._znode_op, %union._znode_op, i32, i32, i8, i8, i8, i8 }
%union._znode_op = type { i32 }
%struct._zend_array = type { %struct._zend_refcounted_h, %union.anon.4, i32, %union.anon.6, i32, i32, i32, i32, i64, ptr }
%struct._zend_refcounted_h = type { i32, %union.anon.3 }
%union.anon.3 = type { i32 }
%union.anon.4 = type { i32 }
%union.anon.6 = type { ptr }
%struct.zend_get_gc_buffer = type { ptr, ptr, ptr }
%struct._zend_call_stack = type { ptr, i64 }
%struct._zend_string = type { %struct._zend_refcounted_h, i64, i64, [1 x i8] }

@executor_globals = external global %struct._zend_executor_globals, align 8
@.str.2 = private unnamed_addr constant [3 x i8] c"on\00", align 1
@.str.3 = private unnamed_addr constant [3 x i8] c"no\00", align 1
@.str.4 = private unnamed_addr constant [4 x i8] c"yes\00", align 1
@.str.5 = private unnamed_addr constant [4 x i8] c"off\00", align 1
@.str.6 = private unnamed_addr constant [5 x i8] c"true\00", align 1
@.str.7 = private unnamed_addr constant [6 x i8] c"false\00", align 1

; Function Attrs: nounwind uwtable
define hidden void @php_filter_boolean(ptr noundef %0, i64 noundef %1, ptr noundef %2, ptr noundef %3) #0 {
  %5 = alloca ptr, align 8
  %6 = alloca i64, align 8
  %7 = alloca ptr, align 8
  %8 = alloca ptr, align 8
  %9 = alloca ptr, align 8
  %10 = alloca i64, align 8
  %11 = alloca i32, align 4
  store ptr %0, ptr %5, align 8
  store i64 %1, ptr %6, align 8
  store ptr %2, ptr %7, align 8
  store ptr %3, ptr %8, align 8
  %12 = load ptr, ptr %5, align 8
  %13 = getelementptr inbounds %struct._zval_struct, ptr %12, i32 0, i32 0
  %14 = load ptr, ptr %13, align 8
  %15 = getelementptr inbounds %struct._zend_string, ptr %14, i32 0, i32 3
  %16 = getelementptr inbounds [1 x i8], ptr %15, i64 0, i64 0
  store ptr %16, ptr %9, align 8
  %17 = load ptr, ptr %5, align 8
  %18 = getelementptr inbounds %struct._zval_struct, ptr %17, i32 0, i32 0
  %19 = load ptr, ptr %18, align 8
  %20 = getelementptr inbounds %struct._zend_string, ptr %19, i32 0, i32 2
  %21 = load i64, ptr %20, align 8
  store i64 %21, ptr %10, align 8
  br label %22

22:                                               ; preds = %54, %4
  %23 = load i64, ptr %10, align 8
  %24 = icmp ugt i64 %23, 0
  br i1 %24, label %25, label %52

25:                                               ; preds = %22
  %26 = load ptr, ptr %9, align 8
  %27 = load i8, ptr %26, align 1
  %28 = sext i8 %27 to i32
  %29 = icmp eq i32 %28, 32
  br i1 %29, label %50, label %30

30:                                               ; preds = %25
  %31 = load ptr, ptr %9, align 8
  %32 = load i8, ptr %31, align 1
  %33 = sext i8 %32 to i32
  %34 = icmp eq i32 %33, 9
  br i1 %34, label %50, label %35

35:                                               ; preds = %30
  %36 = load ptr, ptr %9, align 8
  %37 = load i8, ptr %36, align 1
  %38 = sext i8 %37 to i32
  %39 = icmp eq i32 %38, 13
  br i1 %39, label %50, label %40

40:                                               ; preds = %35
  %41 = load ptr, ptr %9, align 8
  %42 = load i8, ptr %41, align 1
  %43 = sext i8 %42 to i32
  %44 = icmp eq i32 %43, 11
  br i1 %44, label %50, label %45

45:                                               ; preds = %40
  %46 = load ptr, ptr %9, align 8
  %47 = load i8, ptr %46, align 1
  %48 = sext i8 %47 to i32
  %49 = icmp eq i32 %48, 10
  br label %50

50:                                               ; preds = %45, %40, %35, %30, %25
  %51 = phi i1 [ true, %40 ], [ true, %35 ], [ true, %30 ], [ true, %25 ], [ %49, %45 ]
  br label %52

52:                                               ; preds = %50, %22
  %53 = phi i1 [ false, %22 ], [ %51, %50 ]
  br i1 %53, label %54, label %59

54:                                               ; preds = %52
  %55 = load ptr, ptr %9, align 8
  %56 = getelementptr inbounds i8, ptr %55, i32 1
  store ptr %56, ptr %9, align 8
  %57 = load i64, ptr %10, align 8
  %58 = add i64 %57, -1
  store i64 %58, ptr %10, align 8
  br label %22

59:                                               ; preds = %52
  %60 = load i64, ptr %10, align 8
  %61 = icmp ult i64 %60, 1
  br i1 %61, label %62, label %85

62:                                               ; preds = %59
  br i1 false, label %63, label %85

63:                                               ; preds = %62
  %64 = load ptr, ptr getelementptr inbounds (%struct._zend_executor_globals, ptr @executor_globals, i32 0, i32 50), align 8
  %65 = icmp ne ptr %64, null
  br i1 %65, label %66, label %67

66:                                               ; preds = %63
  br label %228

67:                                               ; preds = %63
  %68 = load i64, ptr %6, align 8
  %69 = and i64 %68, 134217728
  %70 = icmp ne i64 %69, 0
  br i1 %70, label %71, label %77

71:                                               ; preds = %67
  %72 = load ptr, ptr %5, align 8
  call void @zval_ptr_dtor(ptr noundef %72)
  br label %73

73:                                               ; preds = %71
  %74 = load ptr, ptr %5, align 8
  %75 = getelementptr inbounds %struct._zval_struct, ptr %74, i32 0, i32 1
  store i32 1, ptr %75, align 8
  br label %76

76:                                               ; preds = %73
  br label %83

77:                                               ; preds = %67
  %78 = load ptr, ptr %5, align 8
  call void @zval_ptr_dtor(ptr noundef %78)
  br label %79

79:                                               ; preds = %77
  %80 = load ptr, ptr %5, align 8
  %81 = getelementptr inbounds %struct._zval_struct, ptr %80, i32 0, i32 1
  store i32 2, ptr %81, align 8
  br label %82

82:                                               ; preds = %79
  br label %83

83:                                               ; preds = %82, %76
  br label %84

84:                                               ; preds = %83
  br label %228

85:                                               ; preds = %62, %59
  %86 = load i64, ptr %10, align 8
  %87 = icmp ugt i64 %86, 0
  br i1 %87, label %88, label %135

88:                                               ; preds = %85
  br label %89

89:                                               ; preds = %131, %88
  %90 = load ptr, ptr %9, align 8
  %91 = load i64, ptr %10, align 8
  %92 = sub i64 %91, 1
  %93 = getelementptr inbounds i8, ptr %90, i64 %92
  %94 = load i8, ptr %93, align 1
  %95 = sext i8 %94 to i32
  %96 = icmp eq i32 %95, 32
  br i1 %96, label %129, label %97

97:                                               ; preds = %89
  %98 = load ptr, ptr %9, align 8
  %99 = load i64, ptr %10, align 8
  %100 = sub i64 %99, 1
  %101 = getelementptr inbounds i8, ptr %98, i64 %100
  %102 = load i8, ptr %101, align 1
  %103 = sext i8 %102 to i32
  %104 = icmp eq i32 %103, 9
  br i1 %104, label %129, label %105

105:                                              ; preds = %97
  %106 = load ptr, ptr %9, align 8
  %107 = load i64, ptr %10, align 8
  %108 = sub i64 %107, 1
  %109 = getelementptr inbounds i8, ptr %106, i64 %108
  %110 = load i8, ptr %109, align 1
  %111 = sext i8 %110 to i32
  %112 = icmp eq i32 %111, 13
  br i1 %112, label %129, label %113

113:                                              ; preds = %105
  %114 = load ptr, ptr %9, align 8
  %115 = load i64, ptr %10, align 8
  %116 = sub i64 %115, 1
  %117 = getelementptr inbounds i8, ptr %114, i64 %116
  %118 = load i8, ptr %117, align 1
  %119 = sext i8 %118 to i32
  %120 = icmp eq i32 %119, 11
  br i1 %120, label %129, label %121

121:                                              ; preds = %113
  %122 = load ptr, ptr %9, align 8
  %123 = load i64, ptr %10, align 8
  %124 = sub i64 %123, 1
  %125 = getelementptr inbounds i8, ptr %122, i64 %124
  %126 = load i8, ptr %125, align 1
  %127 = sext i8 %126 to i32
  %128 = icmp eq i32 %127, 10
  br label %129

129:                                              ; preds = %121, %113, %105, %97, %89
  %130 = phi i1 [ true, %113 ], [ true, %105 ], [ true, %97 ], [ true, %89 ], [ %128, %121 ]
  br i1 %130, label %131, label %134

131:                                              ; preds = %129
  %132 = load i64, ptr %10, align 8
  %133 = add i64 %132, -1
  store i64 %133, ptr %10, align 8
  br label %89

134:                                              ; preds = %129
  br label %135

135:                                              ; preds = %134, %85
  %136 = load i64, ptr %10, align 8
  switch i64 %136, label %193 [
    i64 0, label %137
    i64 1, label %138
    i64 2, label %153
    i64 3, label %166
    i64 4, label %179
    i64 5, label %186
  ]

137:                                              ; preds = %135
  store i32 0, ptr %11, align 4
  br label %194

138:                                              ; preds = %135
  %139 = load ptr, ptr %9, align 8
  %140 = load i8, ptr %139, align 1
  %141 = sext i8 %140 to i32
  %142 = icmp eq i32 %141, 49
  br i1 %142, label %143, label %144

143:                                              ; preds = %138
  store i32 1, ptr %11, align 4
  br label %152

144:                                              ; preds = %138
  %145 = load ptr, ptr %9, align 8
  %146 = load i8, ptr %145, align 1
  %147 = sext i8 %146 to i32
  %148 = icmp eq i32 %147, 48
  br i1 %148, label %149, label %150

149:                                              ; preds = %144
  store i32 0, ptr %11, align 4
  br label %151

150:                                              ; preds = %144
  store i32 -1, ptr %11, align 4
  br label %151

151:                                              ; preds = %150, %149
  br label %152

152:                                              ; preds = %151, %143
  br label %194

153:                                              ; preds = %135
  %154 = load ptr, ptr %9, align 8
  %155 = call i32 @strncasecmp(ptr noundef %154, ptr noundef @.str.2, i64 noundef 2) #11
  %156 = icmp eq i32 %155, 0
  br i1 %156, label %157, label %158

157:                                              ; preds = %153
  store i32 1, ptr %11, align 4
  br label %165

158:                                              ; preds = %153
  %159 = load ptr, ptr %9, align 8
  %160 = call i32 @strncasecmp(ptr noundef %159, ptr noundef @.str.3, i64 noundef 2) #11
  %161 = icmp eq i32 %160, 0
  br i1 %161, label %162, label %163

162:                                              ; preds = %158
  store i32 0, ptr %11, align 4
  br label %164

163:                                              ; preds = %158
  store i32 -1, ptr %11, align 4
  br label %164

164:                                              ; preds = %163, %162
  br label %165

165:                                              ; preds = %164, %157
  br label %194

166:                                              ; preds = %135
  %167 = load ptr, ptr %9, align 8
  %168 = call i32 @strncasecmp(ptr noundef %167, ptr noundef @.str.4, i64 noundef 3) #11
  %169 = icmp eq i32 %168, 0
  br i1 %169, label %170, label %171

170:                                              ; preds = %166
  store i32 1, ptr %11, align 4
  br label %178

171:                                              ; preds = %166
  %172 = load ptr, ptr %9, align 8
  %173 = call i32 @strncasecmp(ptr noundef %172, ptr noundef @.str.5, i64 noundef 3) #11
  %174 = icmp eq i32 %173, 0
  br i1 %174, label %175, label %176

175:                                              ; preds = %171
  store i32 0, ptr %11, align 4
  br label %177

176:                                              ; preds = %171
  store i32 -1, ptr %11, align 4
  br label %177

177:                                              ; preds = %176, %175
  br label %178

178:                                              ; preds = %177, %170
  br label %194

179:                                              ; preds = %135
  %180 = load ptr, ptr %9, align 8
  %181 = call i32 @strncasecmp(ptr noundef %180, ptr noundef @.str.6, i64 noundef 4) #11
  %182 = icmp eq i32 %181, 0
  br i1 %182, label %183, label %184

183:                                              ; preds = %179
  store i32 1, ptr %11, align 4
  br label %185

184:                                              ; preds = %179
  store i32 -1, ptr %11, align 4
  br label %185

185:                                              ; preds = %184, %183
  br label %194

186:                                              ; preds = %135
  %187 = load ptr, ptr %9, align 8
  %188 = call i32 @strncasecmp(ptr noundef %187, ptr noundef @.str.7, i64 noundef 5) #11
  %189 = icmp eq i32 %188, 0
  br i1 %189, label %190, label %191

190:                                              ; preds = %186
  store i32 0, ptr %11, align 4
  br label %192

191:                                              ; preds = %186
  store i32 -1, ptr %11, align 4
  br label %192

192:                                              ; preds = %191, %190
  br label %194

193:                                              ; preds = %135
  store i32 -1, ptr %11, align 4
  br label %194

194:                                              ; preds = %193, %192, %185, %178, %165, %152, %137
  %195 = load i32, ptr %11, align 4
  %196 = icmp eq i32 %195, -1
  br i1 %196, label %197, label %219

197:                                              ; preds = %194
  %198 = load ptr, ptr getelementptr inbounds (%struct._zend_executor_globals, ptr @executor_globals, i32 0, i32 50), align 8
  %199 = icmp ne ptr %198, null
  br i1 %199, label %200, label %201

200:                                              ; preds = %197
  br label %228

201:                                              ; preds = %197
  %202 = load i64, ptr %6, align 8
  %203 = and i64 %202, 134217728
  %204 = icmp ne i64 %203, 0
  br i1 %204, label %205, label %211

205:                                              ; preds = %201
  %206 = load ptr, ptr %5, align 8
  call void @zval_ptr_dtor(ptr noundef %206)
  br label %207

207:                                              ; preds = %205
  %208 = load ptr, ptr %5, align 8
  %209 = getelementptr inbounds %struct._zval_struct, ptr %208, i32 0, i32 1
  store i32 1, ptr %209, align 8
  br label %210

210:                                              ; preds = %207
  br label %217

211:                                              ; preds = %201
  %212 = load ptr, ptr %5, align 8
  call void @zval_ptr_dtor(ptr noundef %212)
  br label %213

213:                                              ; preds = %211
  %214 = load ptr, ptr %5, align 8
  %215 = getelementptr inbounds %struct._zval_struct, ptr %214, i32 0, i32 1
  store i32 2, ptr %215, align 8
  br label %216

216:                                              ; preds = %213
  br label %217

217:                                              ; preds = %216, %210
  br label %218

218:                                              ; preds = %217
  br label %228

219:                                              ; preds = %194
  %220 = load ptr, ptr %5, align 8
  call void @zval_ptr_dtor(ptr noundef %220)
  br label %221

221:                                              ; preds = %219
  %222 = load i32, ptr %11, align 4
  %223 = icmp ne i32 %222, 0
  %224 = select i1 %223, i32 3, i32 2
  %225 = load ptr, ptr %5, align 8
  %226 = getelementptr inbounds %struct._zval_struct, ptr %225, i32 0, i32 1
  store i32 %224, ptr %226, align 8
  br label %227

227:                                              ; preds = %221
  br label %228

228:                                              ; preds = %227, %218, %200, %84, %66
  ret void
}