; Function Attrs: nounwind uwtable
define hidden void @php_filter_boolean(ptr noundef %0, i64 noundef %1, ptr nocapture noundef readnone %2, ptr nocapture noundef readnone %3) local_unnamed_addr #0 {
  %5 = load ptr, ptr %0, align 8
  %6 = getelementptr inbounds i8, ptr %5, i64 16
  %7 = load i64, ptr %6, align 8
  %.not71 = icmp eq i64 %7, 0
  br i1 %.not71, label %.thread, label %.lr.ph.preheader

.lr.ph.preheader:                                 ; preds = %4
  %8 = getelementptr inbounds i8, ptr %5, i64 24
  br label %.lr.ph

.lr.ph:                                           ; preds = %.lr.ph.preheader, %.critedge2
  %.04473 = phi i64 [ %11, %.critedge2 ], [ %7, %.lr.ph.preheader ]
  %.04572 = phi ptr [ %10, %.critedge2 ], [ %8, %.lr.ph.preheader ]
  %9 = load i8, ptr %.04572, align 1
  switch i8 %9, label %.critedge [
    i8 32, label %.critedge2
    i8 9, label %.critedge2
    i8 13, label %.critedge2
    i8 11, label %.critedge2
    i8 10, label %.critedge2
  ]

.critedge2:                                       ; preds = %.lr.ph, %.lr.ph, %.lr.ph, %.lr.ph, %.lr.ph
  %10 = getelementptr inbounds i8, ptr %.04572, i64 1
  %11 = add i64 %.04473, -1
  %.not = icmp eq i64 %11, 0
  br i1 %.not, label %.thread, label %.lr.ph

.critedge:                                        ; preds = %.lr.ph, %.critedge.backedge
  %.1 = phi i64 [ %12, %.critedge.backedge ], [ %.04473, %.lr.ph ]
  %12 = add i64 %.1, -1
  %13 = getelementptr inbounds i8, ptr %.04572, i64 %12
  %14 = load i8, ptr %13, align 1
  switch i8 %14, label %.critedge52 [
    i8 32, label %.critedge.backedge
    i8 9, label %.critedge.backedge
    i8 13, label %.critedge.backedge
    i8 11, label %.critedge.backedge
    i8 10, label %.critedge.backedge
  ]

.critedge.backedge:                               ; preds = %.critedge, %.critedge, %.critedge, %.critedge, %.critedge
  br label %.critedge

.critedge52:                                      ; preds = %.critedge
  switch i64 %.1, label %.thread63 [
    i64 0, label %.thread
    i64 1, label %15
    i64 2, label %17
    i64 3, label %22
    i64 4, label %27
    i64 5, label %29
  ]

15:                                               ; preds = %.critedge52
  switch i8 %9, label %.thread63 [
    i8 49, label %.thread
    i8 48, label %16
  ]

16:                                               ; preds = %15
  br label %.thread

17:                                               ; preds = %.critedge52
  %18 = tail call i32 @strncasecmp(ptr noundef nonnull %.04572, ptr noundef nonnull @.str.2, i64 noundef 2) #15
  %19 = icmp eq i32 %18, 0
  br i1 %19, label %.thread, label %20

20:                                               ; preds = %17
  %21 = tail call i32 @strncasecmp(ptr noundef nonnull %.04572, ptr noundef nonnull @.str.3, i64 noundef 2) #15
  %.not68 = icmp eq i32 %21, 0
  br i1 %.not68, label %.thread, label %.thread63

22:                                               ; preds = %.critedge52
  %23 = tail call i32 @strncasecmp(ptr noundef nonnull %.04572, ptr noundef nonnull @.str.4, i64 noundef 3) #15
  %24 = icmp eq i32 %23, 0
  br i1 %24, label %.thread, label %25

25:                                               ; preds = %22
  %26 = tail call i32 @strncasecmp(ptr noundef nonnull %.04572, ptr noundef nonnull @.str.5, i64 noundef 3) #15
  %.not67 = icmp eq i32 %26, 0
  br i1 %.not67, label %.thread, label %.thread63

27:                                               ; preds = %.critedge52
  %28 = tail call i32 @strncasecmp(ptr noundef nonnull %.04572, ptr noundef nonnull @.str.6, i64 noundef 4) #15
  %.not66 = icmp eq i32 %28, 0
  br i1 %.not66, label %.thread, label %.thread63

29:                                               ; preds = %.critedge52
  %30 = tail call i32 @strncasecmp(ptr noundef nonnull %.04572, ptr noundef nonnull @.str.7, i64 noundef 5) #15
  %.not65 = icmp eq i32 %30, 0
  br i1 %.not65, label %.thread, label %.thread63

.thread63:                                        ; preds = %.critedge52, %15, %27, %25, %20, %29
  %31 = load ptr, ptr getelementptr inbounds (%struct._zend_executor_globals, ptr @executor_globals, i64 0, i32 50), align 8
  %.not50 = icmp eq ptr %31, null
  br i1 %.not50, label %32, label %38

32:                                               ; preds = %.thread63
  %33 = and i64 %1, 134217728
  %.not51 = icmp eq i64 %33, 0
  tail call void @zval_ptr_dtor(ptr noundef nonnull %0) #14
  %34 = getelementptr inbounds i8, ptr %0, i64 8
  br i1 %.not51, label %36, label %35

35:                                               ; preds = %32
  store i32 1, ptr %34, align 8
  br label %38

36:                                               ; preds = %32
  store i32 2, ptr %34, align 8
  br label %38

.thread:                                          ; preds = %.critedge2, %4, %22, %17, %15, %.critedge52, %16, %27, %25, %20, %29
  %.not4961 = phi i32 [ 2, %29 ], [ 2, %20 ], [ 2, %25 ], [ 3, %27 ], [ 3, %22 ], [ 3, %17 ], [ 3, %15 ], [ 2, %.critedge52 ], [ 2, %16 ], [ 2, %4 ], [ 2, %.critedge2 ]
  tail call void @zval_ptr_dtor(ptr noundef nonnull %0) #14
  %37 = getelementptr inbounds i8, ptr %0, i64 8
  store i32 %.not4961, ptr %37, align 8
  br label %38

38:                                               ; preds = %36, %35, %.thread63, %.thread
  ret void
}